; Function Attrs: mustprogress nofree norecurse nosync nounwind willreturn memory(argmem: read) uwtable
define noundef double @_Z13sget_fixed32usPh(i16 noundef signext %0, ptr noundef readonly captures(none) %1) local_unnamed_addr #7 {
  %3 = icmp eq i16 %0, 18761
  br i1 %3, label %4, label %6

4:                                                ; preds = %2
  %5 = load i32, ptr %1, align 1
  br label %_Z11sget4_ordersPh.exit

6:                                                ; preds = %2
  %7 = load i8, ptr %1, align 1, !tbaa !71
  %8 = zext i8 %7 to i32
  %9 = shl nuw i32 %8, 24
  %10 = getelementptr inbounds nuw i8, ptr %1, i64 1
  %11 = load i8, ptr %10, align 1, !tbaa !71
  %12 = zext i8 %11 to i32
  %13 = shl nuw nsw i32 %12, 16
  %14 = or disjoint i32 %13, %9
  %15 = getelementptr inbounds nuw i8, ptr %1, i64 2
  %16 = load i8, ptr %15, align 1, !tbaa !71
  %17 = zext i8 %16 to i32
  %18 = shl nuw nsw i32 %17, 8
  %19 = or disjoint i32 %14, %18
  %20 = getelementptr inbounds nuw i8, ptr %1, i64 3
  %21 = load i8, ptr %20, align 1, !tbaa !71
  %22 = zext i8 %21 to i32
  %23 = or disjoint i32 %19, %22
  br label %_Z11sget4_ordersPh.exit

_Z11sget4_ordersPh.exit:                          ; preds = %4, %6
  %.0.i = phi i32 [ %5, %4 ], [ %23, %6 ]
  %24 = uitofp i32 %.0.i to double
  %25 = fmul reassoc nsz arcp contract afn double %24, 0x3EF0000000000000
  %26 = fadd reassoc nsz arcp contract afn double %25, 5.000000e-05
  ret double %26
}